target datalayout = "e-m:e-p270:32:32-p271:32:32-p272:64:64-i64:64-i128:128-f80:128-n8:16:32:64-S128"
target triple = "x86_64-pc-linux-gnu"

%struct._priv_exr_context_t = type { i8, i8, i8, i8, i8, i8, i8, i8, %struct.exr_attr_string_t, %struct.exr_attr_string_t, ptr, ptr, ptr, ptr, ptr, ptr, ptr, ptr, i32, i32, i32, i32, i32, float, ptr, ptr, ptr, i64, ptr, ptr, i64, i32, i32, i32, i32, %struct._priv_exr_part_t, ptr, ptr, %struct.exr_attribute_list, %union.pthread_mutex_t, i8, i8, [2 x i8], i32 }
%struct.exr_attr_string_t = type { i32, i32, ptr }
%struct._priv_exr_part_t = type { i32, i32, %struct.exr_attribute_list, ptr, ptr, ptr, ptr, ptr, ptr, ptr, ptr, ptr, ptr, ptr, ptr, ptr, ptr, %struct.exr_attr_box2i_t, %struct.exr_attr_box2i_t, i32, i32, i32, float, i32, i32, ptr, ptr, ptr, ptr, i64, i16, i16, i32, i64, i64 }
%struct.exr_attr_box2i_t = type { %struct.exr_attr_v2i_t, %struct.exr_attr_v2i_t }
%struct.exr_attr_v2i_t = type { i32, i32 }
%struct.exr_attribute_list = type { i32, i32, ptr, ptr }
%union.pthread_mutex_t = type { %struct.__pthread_mutex_s }
%struct.__pthread_mutex_s = type { i32, i32, i32, i32, i32, i16, i16, %struct.__pthread_internal_list }
%struct.__pthread_internal_list = type { ptr, ptr }

@.str = private unnamed_addr constant [29 x i8] c"Part index (%d) out of range\00", align 1

; Function Attrs: inlinehint nounwind uwtable
define internal void @internal_exr_unlock(ptr noundef %0) #2 {
  %2 = alloca ptr, align 8
  %3 = alloca ptr, align 8
  store ptr %0, ptr %2, align 8, !tbaa !3
  call void @llvm.lifetime.start.p0(i64 8, ptr %3) #6
  %4 = load ptr, ptr %2, align 8, !tbaa !3
  %5 = ptrtoint ptr %4 to i64
  %6 = inttoptr i64 %5 to ptr
  store ptr %6, ptr %3, align 8, !tbaa !3
  %7 = load ptr, ptr %3, align 8, !tbaa !3
  %8 = getelementptr inbounds nuw %struct._priv_exr_context_t, ptr %7, i32 0, i32 39
  %9 = call i32 @pthread_mutex_unlock(ptr noundef %8) #6
  call void @llvm.lifetime.end.p0(i64 8, ptr %3) #6
  ret void
}

; Function Attrs: inlinehint nounwind uwtable
define internal void @internal_exr_lock(ptr noundef %0) #2 {
  %2 = alloca ptr, align 8
  %3 = alloca ptr, align 8
  store ptr %0, ptr %2, align 8, !tbaa !3
  call void @llvm.lifetime.start.p0(i64 8, ptr %3) #6
  %4 = load ptr, ptr %2, align 8, !tbaa !3
  %5 = ptrtoint ptr %4 to i64
  %6 = inttoptr i64 %5 to ptr
  store ptr %6, ptr %3, align 8, !tbaa !3
  %7 = load ptr, ptr %3, align 8, !tbaa !3
  %8 = getelementptr inbounds nuw %struct._priv_exr_context_t, ptr %7, i32 0, i32 39
  %9 = call i32 @pthread_mutex_lock(ptr noundef %8) #6
  call void @llvm.lifetime.end.p0(i64 8, ptr %3) #6
  ret void
}

; Function Attrs: nounwind uwtable
define i32 @exr_validate_chunk_table(ptr noundef %0, i32 noundef %1) #0 {
  %3 = alloca i32, align 4
  %4 = alloca ptr, align 8
  %5 = alloca i32, align 4
  %6 = alloca i32, align 4
  %7 = alloca i64, align 8
  %8 = alloca i64, align 8
  %9 = alloca ptr, align 8
  %10 = alloca i32, align 4
  %11 = alloca ptr, align 8
  %12 = alloca i32, align 4
  %13 = alloca i32, align 4
  %14 = alloca i64, align 8
  store ptr %0, ptr %4, align 8, !tbaa !3
  store i32 %1, ptr %5, align 4, !tbaa !27
  call void @llvm.lifetime.start.p0(i64 4, ptr %6) #6
  call void @llvm.lifetime.start.p0(i64 8, ptr %7) #6
  call void @llvm.lifetime.start.p0(i64 8, ptr %8) #6
  store i64 -1, ptr %8, align 8, !tbaa !34
  call void @llvm.lifetime.start.p0(i64 8, ptr %9) #6
  call void @llvm.lifetime.start.p0(i64 4, ptr %10) #6
  call void @llvm.lifetime.start.p0(i64 8, ptr %11) #6
  %15 = load ptr, ptr %4, align 8, !tbaa !3
  %16 = icmp ne ptr %15, null
  br i1 %16, label %18, label %17

17:                                               ; preds = %2
  store i32 2, ptr %3, align 4
  store i32 1, ptr %12, align 4
  br label %109

18:                                               ; preds = %2
  %19 = load ptr, ptr %4, align 8, !tbaa !3
  %20 = getelementptr inbounds nuw %struct._priv_exr_context_t, ptr %19, i32 0, i32 0
  %21 = load i8, ptr %20, align 8, !tbaa !25
  %22 = zext i8 %21 to i32
  %23 = icmp eq i32 %22, 1
  br i1 %23, label %24, label %26

24:                                               ; preds = %18
  %25 = load ptr, ptr %4, align 8, !tbaa !3
  call void @internal_exr_lock(ptr noundef %25)
  br label %26

26:                                               ; preds = %24, %18
  %27 = load i32, ptr %5, align 4, !tbaa !27
  %28 = icmp slt i32 %27, 0
  br i1 %28, label %35, label %29

29:                                               ; preds = %26
  %30 = load i32, ptr %5, align 4, !tbaa !27
  %31 = load ptr, ptr %4, align 8, !tbaa !3
  %32 = getelementptr inbounds nuw %struct._priv_exr_context_t, ptr %31, i32 0, i32 34
  %33 = load i32, ptr %32, align 4, !tbaa !26
  %34 = icmp sge i32 %30, %33
  br i1 %34, label %35, label %50

35:                                               ; preds = %29, %26
  %36 = load ptr, ptr %4, align 8, !tbaa !3
  %37 = getelementptr inbounds nuw %struct._priv_exr_context_t, ptr %36, i32 0, i32 0
  %38 = load i8, ptr %37, align 8, !tbaa !25
  %39 = zext i8 %38 to i32
  %40 = icmp eq i32 %39, 1
  br i1 %40, label %41, label %43

41:                                               ; preds = %35
  %42 = load ptr, ptr %4, align 8, !tbaa !3
  call void @internal_exr_unlock(ptr noundef %42)
  br label %43

43:                                               ; preds = %41, %35
  %44 = load ptr, ptr %4, align 8, !tbaa !3
  %45 = getelementptr inbounds nuw %struct._priv_exr_context_t, ptr %44, i32 0, i32 14
  %46 = load ptr, ptr %45, align 8, !tbaa !29
  %47 = load ptr, ptr %4, align 8, !tbaa !3
  %48 = load i32, ptr %5, align 4, !tbaa !27
  %49 = call i32 (ptr, i32, ptr, ...) %46(ptr noundef %47, i32 noundef 4, ptr noundef @.str, i32 noundef %48)
  store i32 %49, ptr %3, align 4
  store i32 1, ptr %12, align 4
  br label %109

50:                                               ; preds = %29
  %51 = load ptr, ptr %4, align 8, !tbaa !3
  %52 = getelementptr inbounds nuw %struct._priv_exr_context_t, ptr %51, i32 0, i32 37
  %53 = load ptr, ptr %52, align 8, !tbaa !30
  %54 = load i32, ptr %5, align 4, !tbaa !27
  %55 = sext i32 %54 to i64
  %56 = getelementptr inbounds ptr, ptr %53, i64 %55
  %57 = load ptr, ptr %56, align 8, !tbaa !31
  store ptr %57, ptr %11, align 8, !tbaa !31
  %58 = load ptr, ptr %4, align 8, !tbaa !3
  %59 = load ptr, ptr %11, align 8, !tbaa !31
  %60 = call i32 @extract_chunk_table(ptr noundef %58, ptr noundef %59, ptr noundef %9, ptr noundef %7)
  store i32 %60, ptr %6, align 4, !tbaa !27
  %61 = load i32, ptr %6, align 4, !tbaa !27
  %62 = icmp ne i32 %61, 0
  br i1 %62, label %63, label %65

63:                                               ; preds = %50
  %64 = load i32, ptr %6, align 4, !tbaa !27
  store i32 %64, ptr %3, align 4
  store i32 1, ptr %12, align 4
  br label %109

65:                                               ; preds = %50
  %66 = load ptr, ptr %4, align 8, !tbaa !3
  %67 = getelementptr inbounds nuw %struct._priv_exr_context_t, ptr %66, i32 0, i32 27
  %68 = load i64, ptr %67, align 8, !tbaa !61
  %69 = icmp sgt i64 %68, 0
  br i1 %69, label %70, label %74

70:                                               ; preds = %65
  %71 = load ptr, ptr %4, align 8, !tbaa !3
  %72 = getelementptr inbounds nuw %struct._priv_exr_context_t, ptr %71, i32 0, i32 27
  %73 = load i64, ptr %72, align 8, !tbaa !61
  store i64 %73, ptr %8, align 8, !tbaa !34
  br label %74

74:                                               ; preds = %70, %65
  store i32 1, ptr %10, align 4, !tbaa !27
  call void @llvm.lifetime.start.p0(i64 4, ptr %13) #6
  store i32 0, ptr %13, align 4, !tbaa !27
  br label %75

75:                                               ; preds = %100, %74
  %76 = load i32, ptr %13, align 4, !tbaa !27
  %77 = load ptr, ptr %11, align 8, !tbaa !31
  %78 = getelementptr inbounds nuw %struct._priv_exr_part_t, ptr %77, i32 0, i32 32
  %79 = load i32, ptr %78, align 4, !tbaa !56
  %80 = icmp slt i32 %76, %79
  br i1 %80, label %82, label %81

81:                                               ; preds = %75
  store i32 2, ptr %12, align 4
  br label %103

82:                                               ; preds = %75
  call void @llvm.lifetime.start.p0(i64 8, ptr %14) #6
  %83 = load ptr, ptr %9, align 8, !tbaa !62
  %84 = load i32, ptr %13, align 4, !tbaa !27
  %85 = sext i32 %84 to i64
  %86 = getelementptr inbounds i64, ptr %83, i64 %85
  %87 = load i64, ptr %86, align 8, !tbaa !34
  store i64 %87, ptr %14, align 8, !tbaa !34
  %88 = load i64, ptr %14, align 8, !tbaa !34
  %89 = load i64, ptr %7, align 8, !tbaa !34
  %90 = icmp ult i64 %88, %89
  br i1 %90, label %95, label %91

91:                                               ; preds = %82
  %92 = load i64, ptr %14, align 8, !tbaa !34
  %93 = load i64, ptr %8, align 8, !tbaa !34
  %94 = icmp uge i64 %92, %93
  br i1 %94, label %95, label %96

95:                                               ; preds = %91, %82
  store i32 0, ptr %10, align 4, !tbaa !27
  store i32 2, ptr %12, align 4
  br label %97

96:                                               ; preds = %91
  store i32 0, ptr %12, align 4
  br label %97

97:                                               ; preds = %96, %95
  call void @llvm.lifetime.end.p0(i64 8, ptr %14) #6
  %98 = load i32, ptr %12, align 4
  switch i32 %98, label %103 [
    i32 0, label %99
  ]

99:                                               ; preds = %97
  br label %100

100:                                              ; preds = %99
  %101 = load i32, ptr %13, align 4, !tbaa !27
  %102 = add nsw i32 %101, 1
  store i32 %102, ptr %13, align 4, !tbaa !27
  br label %75, !llvm.loop !64

103:                                              ; preds = %97, %81
  call void @llvm.lifetime.end.p0(i64 4, ptr %13) #6
  br label %104

104:                                              ; preds = %103
  %105 = load i32, ptr %10, align 4, !tbaa !27
  %106 = icmp ne i32 %105, 0
  br i1 %106, label %108, label %107

107:                                              ; preds = %104
  store i32 24, ptr %3, align 4
  store i32 1, ptr %12, align 4
  br label %109

108:                                              ; preds = %104
  store i32 0, ptr %3, align 4
  store i32 1, ptr %12, align 4
  br label %109

109:                                              ; preds = %108, %107, %63, %43, %17
  call void @llvm.lifetime.end.p0(i64 8, ptr %11) #6
  call void @llvm.lifetime.end.p0(i64 4, ptr %10) #6
  call void @llvm.lifetime.end.p0(i64 8, ptr %9) #6
  call void @llvm.lifetime.end.p0(i64 8, ptr %8) #6
  call void @llvm.lifetime.end.p0(i64 8, ptr %7) #6
  call void @llvm.lifetime.end.p0(i64 4, ptr %6) #6
  %110 = load i32, ptr %3, align 4
  ret i32 %110
}