; Function Attrs: nounwind uwtable
define i32 @exr_validate_chunk_table(ptr noundef %0, i32 noundef %1) local_unnamed_addr #0 {
  %3 = alloca i64, align 8
  %4 = alloca ptr, align 8
  call void @llvm.lifetime.start.p0(i64 8, ptr nonnull %3) #6
  call void @llvm.lifetime.start.p0(i64 8, ptr nonnull %4) #6
  %.not = icmp eq ptr %0, null
  br i1 %.not, label %.loopexit, label %5

5:                                                ; preds = %2
  %6 = load i8, ptr %0, align 8, !tbaa !22
  %7 = icmp eq i8 %6, 1
  br i1 %7, label %8, label %11

8:                                                ; preds = %5
  %9 = getelementptr inbounds nuw i8, ptr %0, i64 504
  %10 = tail call i32 @pthread_mutex_lock(ptr noundef nonnull %9) #6
  br label %11

11:                                               ; preds = %8, %5
  %12 = icmp slt i32 %1, 0
  br i1 %12, label %16, label %13

13:                                               ; preds = %11
  %14 = getelementptr inbounds nuw i8, ptr %0, i64 196
  %15 = load i32, ptr %14, align 4, !tbaa !23
  %.not37 = icmp slt i32 %1, %15
  br i1 %.not37, label %26, label %16

16:                                               ; preds = %13, %11
  %17 = load i8, ptr %0, align 8, !tbaa !22
  %18 = icmp eq i8 %17, 1
  br i1 %18, label %19, label %22

19:                                               ; preds = %16
  %20 = getelementptr inbounds nuw i8, ptr %0, i64 504
  %21 = tail call i32 @pthread_mutex_unlock(ptr noundef nonnull %20) #6
  br label %22

22:                                               ; preds = %19, %16
  %23 = getelementptr inbounds nuw i8, ptr %0, i64 72
  %24 = load ptr, ptr %23, align 8, !tbaa !25
  %25 = tail call i32 (ptr, i32, ptr, ...) %24(ptr noundef nonnull %0, i32 noundef 4, ptr noundef nonnull @.str, i32 noundef %1) #6
  br label %.loopexit

26:                                               ; preds = %13
  %27 = getelementptr inbounds nuw i8, ptr %0, i64 472
  %28 = load ptr, ptr %27, align 8, !tbaa !26
  %29 = zext nneg i32 %1 to i64
  %30 = getelementptr inbounds nuw ptr, ptr %28, i64 %29
  %31 = load ptr, ptr %30, align 8, !tbaa !27
  %32 = call i32 @extract_chunk_table(ptr noundef nonnull %0, ptr noundef %31, ptr noundef nonnull %4, ptr noundef nonnull %3) #6
  %.not38 = icmp eq i32 %32, 0
  br i1 %.not38, label %33, label %.loopexit

33:                                               ; preds = %26
  %34 = getelementptr inbounds nuw i8, ptr %0, i64 152
  %35 = load i64, ptr %34, align 8, !tbaa !53
  %36 = icmp sgt i64 %35, 0
  %spec.select = select i1 %36, i64 %35, i64 -1
  %37 = getelementptr inbounds nuw i8, ptr %31, i64 244
  %38 = load i32, ptr %37, align 4, !tbaa !50
  %39 = icmp sgt i32 %38, 0
  br i1 %39, label %.lr.ph, label %.loopexit

.lr.ph:                                           ; preds = %33
  %40 = load ptr, ptr %4, align 8, !tbaa !54
  %41 = load i64, ptr %3, align 8, !tbaa !56
  %wide.trip.count = zext nneg i32 %38 to i64
  br label %43

42:                                               ; preds = %43
  %indvars.iv.next = add nuw nsw i64 %indvars.iv, 1
  %exitcond.not = icmp eq i64 %indvars.iv.next, %wide.trip.count
  br i1 %exitcond.not, label %.loopexit, label %43, !llvm.loop !57

43:                                               ; preds = %.lr.ph, %42
  %indvars.iv = phi i64 [ 0, %.lr.ph ], [ %indvars.iv.next, %42 ]
  %44 = getelementptr inbounds nuw i64, ptr %40, i64 %indvars.iv
  %45 = load i64, ptr %44, align 8, !tbaa !56
  %46 = icmp uge i64 %45, %41
  %.not39 = icmp ult i64 %45, %spec.select
  %or.cond = select i1 %46, i1 %.not39, i1 false
  br i1 %or.cond, label %42, label %.loopexit

.loopexit:                                        ; preds = %42, %43, %33, %26, %2, %22
  %.0 = phi i32 [ %25, %22 ], [ 2, %2 ], [ %32, %26 ], [ 0, %33 ], [ 0, %42 ], [ 24, %43 ]
  call void @llvm.lifetime.end.p0(i64 8, ptr nonnull %4) #6
  call void @llvm.lifetime.end.p0(i64 8, ptr nonnull %3) #6
  ret i32 %.0
}